; Function Attrs: mustprogress uwtable
define dso_local void @_ZN3net21QuicSentPacketManager21ResumeConnectionStateERKNS_23CachedNetworkParametersEb(ptr nocapture noundef nonnull align 8 dereferenceable(776) %this, ptr noundef nonnull align 8 dereferenceable(72) %cached_network_params, i1 noundef zeroext %max_bandwidth_resumption) unnamed_addr #0 align 2 personality ptr @__gxx_personality_v0 {
entry:
  %_has_bits_.i = getelementptr inbounds i8, ptr %cached_network_params, i64 24
  %0 = load i32, ptr %_has_bits_.i, align 8
  %and.i = and i32 %0, 16
  %cmp.i.not = icmp eq i32 %and.i, 0
  br i1 %cmp.i.not, label %if.end, label %if.then

if.then:                                          ; preds = %entry
  %min_rtt_ms_.i = getelementptr inbounds i8, ptr %cached_network_params, i64 56
  %1 = load i32, ptr %min_rtt_ms_.i, align 8
  %mul = mul i32 %1, 1000
  %2 = tail call i32 @llvm.umin.i32(i32 %mul, i32 15000000)
  %3 = tail call i32 @llvm.umax.i32(i32 %2, i32 10000)
  %conv6 = zext nneg i32 %3 to i64
  %initial_rtt_us_.i = getelementptr inbounds i8, ptr %this, i64 344
  store i64 %conv6, ptr %initial_rtt_us_.i, align 8
  br label %if.end

if.end:                                           ; preds = %if.then, %entry
  %send_algorithm_ = getelementptr inbounds i8, ptr %this, i64 488
  %4 = load ptr, ptr %send_algorithm_, align 8
  %vtable = load ptr, ptr %4, align 8
  %vfn = getelementptr inbounds i8, ptr %vtable, i64 136
  %5 = load ptr, ptr %vfn, align 8
  tail call void %5(ptr noundef nonnull align 8 dereferenceable(8) %4, ptr noundef nonnull align 8 dereferenceable(72) %cached_network_params, i1 noundef zeroext %max_bandwidth_resumption)
  ret void
}